target datalayout = "e-m:e-p270:32:32-p271:32:32-p272:64:64-i64:64-i128:128-f80:128-n8:16:32:64-S128"
target triple = "x86_64-pc-linux-gnu"

%class.floatbuffer = type { ptr, i32, i32, i32, %class.QString }
%class.QString = type { ptr }

; Function Attrs: mustprogress nounwind uwtable
define noundef i32 @_ZN11floatbuffer8fillwithEf(ptr noundef nonnull align 8 dereferenceable(32) %0, float noundef %1) #4 align 2 {
  %3 = alloca i32, align 4
  %4 = alloca ptr, align 8
  %5 = alloca float, align 4
  %6 = alloca i32, align 4
  store ptr %0, ptr %4, align 8
  store float %1, ptr %5, align 4
  %7 = load ptr, ptr %4, align 8
  %8 = getelementptr inbounds %class.floatbuffer, ptr %7, i32 0, i32 3
  %9 = load i32, ptr %8, align 8
  %10 = icmp ne i32 %9, 0
  br i1 %10, label %12, label %11

11:                                               ; preds = %2
  store i32 -1, ptr %3, align 4
  br label %32

12:                                               ; preds = %2
  store i32 0, ptr %6, align 4
  br label %13

13:                                               ; preds = %28, %12
  %14 = load i32, ptr %6, align 4
  %15 = getelementptr inbounds %class.floatbuffer, ptr %7, i32 0, i32 1
  %16 = load i32, ptr %15, align 8
  %17 = getelementptr inbounds %class.floatbuffer, ptr %7, i32 0, i32 2
  %18 = load i32, ptr %17, align 4
  %19 = mul nsw i32 %16, %18
  %20 = icmp slt i32 %14, %19
  br i1 %20, label %21, label %31

21:                                               ; preds = %13
  %22 = load float, ptr %5, align 4
  %23 = getelementptr inbounds %class.floatbuffer, ptr %7, i32 0, i32 0
  %24 = load ptr, ptr %23, align 8
  %25 = load i32, ptr %6, align 4
  %26 = sext i32 %25 to i64
  %27 = getelementptr inbounds float, ptr %24, i64 %26
  store float %22, ptr %27, align 4
  br label %28

28:                                               ; preds = %21
  %29 = load i32, ptr %6, align 4
  %30 = add nsw i32 %29, 1
  store i32 %30, ptr %6, align 4
  br label %13, !llvm.loop !19

31:                                               ; preds = %13
  store i32 1, ptr %3, align 4
  br label %32

32:                                               ; preds = %31, %11
  %33 = load i32, ptr %3, align 4
  ret i32 %33
}