; Function Attrs: mustprogress nofree norecurse nosync nounwind memory(write, argmem: readwrite, inaccessiblemem: none) uwtable
define noundef i32 @_ZN11floatbuffer8fillwithEf(ptr nocapture noundef nonnull readonly align 8 dereferenceable(32) %0, float noundef %1) local_unnamed_addr #17 align 2 {
  %3 = getelementptr inbounds i8, ptr %0, i64 16
  %4 = load i32, ptr %3, align 8
  %.not = icmp eq i32 %4, 0
  br i1 %.not, label %.loopexit, label %.preheader

.preheader:                                       ; preds = %2
  %5 = getelementptr inbounds i8, ptr %0, i64 8
  %6 = getelementptr inbounds i8, ptr %0, i64 12
  %7 = load i32, ptr %5, align 8
  %8 = load i32, ptr %6, align 4
  %9 = mul nsw i32 %8, %7
  %10 = icmp sgt i32 %9, 0
  br i1 %10, label %.lr.ph, label %.loopexit

.lr.ph:                                           ; preds = %.preheader, %.lr.ph
  %indvars.iv = phi i64 [ %indvars.iv.next, %.lr.ph ], [ 0, %.preheader ]
  %11 = load ptr, ptr %0, align 8
  %12 = getelementptr inbounds float, ptr %11, i64 %indvars.iv
  store float %1, ptr %12, align 4
  %indvars.iv.next = add nuw nsw i64 %indvars.iv, 1
  %13 = load i32, ptr %5, align 8
  %14 = load i32, ptr %6, align 4
  %15 = mul nsw i32 %14, %13
  %16 = sext i32 %15 to i64
  %17 = icmp slt i64 %indvars.iv.next, %16
  br i1 %17, label %.lr.ph, label %.loopexit, !llvm.loop !19

.loopexit:                                        ; preds = %.lr.ph, %.preheader, %2
  %.05 = phi i32 [ -1, %2 ], [ 1, %.preheader ], [ 1, %.lr.ph ]
  ret i32 %.05
}